target datalayout = "e-m:e-p270:32:32-p271:32:32-p272:64:64-i64:64-i128:128-f80:128-n8:16:32:64-S128"
target triple = "x86_64-pc-linux-gnu"

%struct.crypto_ex_data_st = type { ptr, ptr }
%struct.termios = type { i32, i32, i32, i32, i8, [32 x i8], i32, i32 }
%struct.ui_st = type { ptr, ptr, ptr, %struct.crypto_ex_data_st, i32, ptr }

@is_a_tty = internal global i32 0, align 4
@.str.1 = private unnamed_addr constant [9 x i8] c"/dev/tty\00", align 1
@.str.2 = private unnamed_addr constant [2 x i8] c"r\00", align 1
@tty_in = internal global ptr null, align 8
@stdin = external global ptr, align 8
@.str.3 = private unnamed_addr constant [2 x i8] c"w\00", align 1
@tty_out = internal global ptr null, align 8
@stderr = external global ptr, align 8
@tty_orig = internal global %struct.termios zeroinitializer, align 4
@.str.4 = private unnamed_addr constant [34 x i8] c"../openssl/crypto/ui/ui_openssl.c\00", align 1
@__func__.open_console = private unnamed_addr constant [13 x i8] c"open_console\00", align 1
@.str.5 = private unnamed_addr constant [9 x i8] c"errno=%d\00", align 1

; Function Attrs: nounwind uwtable
define internal i32 @open_console(ptr noundef %0) #0 {
  %2 = alloca i32, align 4
  %3 = alloca ptr, align 8
  store ptr %0, ptr %3, align 8, !tbaa !8
  %4 = load ptr, ptr %3, align 8, !tbaa !8
  %5 = getelementptr inbounds nuw %struct.ui_st, ptr %4, i32 0, i32 5
  %6 = load ptr, ptr %5, align 8, !tbaa !10
  %7 = call i32 @CRYPTO_THREAD_write_lock(ptr noundef %6)
  %8 = icmp ne i32 %7, 0
  br i1 %8, label %10, label %9

9:                                                ; preds = %1
  store i32 0, ptr %2, align 4
  br label %65

10:                                               ; preds = %1
  store i32 1, ptr @is_a_tty, align 4, !tbaa !17
  %11 = call noalias ptr @fopen(ptr noundef @.str.1, ptr noundef @.str.2)
  store ptr %11, ptr @tty_in, align 8, !tbaa !18
  %12 = icmp eq ptr %11, null
  br i1 %12, label %13, label %15

13:                                               ; preds = %10
  %14 = load ptr, ptr @stdin, align 8, !tbaa !18
  store ptr %14, ptr @tty_in, align 8, !tbaa !18
  br label %15

15:                                               ; preds = %13, %10
  %16 = call noalias ptr @fopen(ptr noundef @.str.1, ptr noundef @.str.3)
  store ptr %16, ptr @tty_out, align 8, !tbaa !18
  %17 = icmp eq ptr %16, null
  br i1 %17, label %18, label %20

18:                                               ; preds = %15
  %19 = load ptr, ptr @stderr, align 8, !tbaa !18
  store ptr %19, ptr @tty_out, align 8, !tbaa !18
  br label %20

20:                                               ; preds = %18, %15
  %21 = load ptr, ptr @tty_in, align 8, !tbaa !18
  %22 = call i32 @fileno(ptr noundef %21) #8
  %23 = call i32 @tcgetattr(i32 noundef %22, ptr noundef @tty_orig) #8
  %24 = icmp eq i32 %23, -1
  br i1 %24, label %25, label %64

25:                                               ; preds = %20
  %26 = call ptr @__errno_location() #9
  %27 = load i32, ptr %26, align 4, !tbaa !17
  %28 = icmp eq i32 %27, 25
  br i1 %28, label %29, label %30

29:                                               ; preds = %25
  store i32 0, ptr @is_a_tty, align 4, !tbaa !17
  br label %63

30:                                               ; preds = %25
  %31 = call ptr @__errno_location() #9
  %32 = load i32, ptr %31, align 4, !tbaa !17
  %33 = icmp eq i32 %32, 22
  br i1 %33, label %34, label %35

34:                                               ; preds = %30
  store i32 0, ptr @is_a_tty, align 4, !tbaa !17
  br label %62

35:                                               ; preds = %30
  %36 = call ptr @__errno_location() #9
  %37 = load i32, ptr %36, align 4, !tbaa !17
  %38 = icmp eq i32 %37, 6
  br i1 %38, label %39, label %40

39:                                               ; preds = %35
  store i32 0, ptr @is_a_tty, align 4, !tbaa !17
  br label %61

40:                                               ; preds = %35
  %41 = call ptr @__errno_location() #9
  %42 = load i32, ptr %41, align 4, !tbaa !17
  %43 = icmp eq i32 %42, 5
  br i1 %43, label %44, label %45

44:                                               ; preds = %40
  store i32 0, ptr @is_a_tty, align 4, !tbaa !17
  br label %60

45:                                               ; preds = %40
  %46 = call ptr @__errno_location() #9
  %47 = load i32, ptr %46, align 4, !tbaa !17
  %48 = icmp eq i32 %47, 1
  br i1 %48, label %49, label %50

49:                                               ; preds = %45
  store i32 0, ptr @is_a_tty, align 4, !tbaa !17
  br label %59

50:                                               ; preds = %45
  %51 = call ptr @__errno_location() #9
  %52 = load i32, ptr %51, align 4, !tbaa !17
  %53 = icmp eq i32 %52, 19
  br i1 %53, label %54, label %55

54:                                               ; preds = %50
  store i32 0, ptr @is_a_tty, align 4, !tbaa !17
  br label %58

55:                                               ; preds = %50
  call void @ERR_new()
  call void @ERR_set_debug(ptr noundef @.str.4, i32 noundef 459, ptr noundef @__func__.open_console)
  %56 = call ptr @__errno_location() #9
  %57 = load i32, ptr %56, align 4, !tbaa !17
  call void (i32, i32, ptr, ...) @ERR_set_error(i32 noundef 40, i32 noundef 108, ptr noundef @.str.5, i32 noundef %57)
  store i32 0, ptr %2, align 4
  br label %65

58:                                               ; preds = %54
  br label %59

59:                                               ; preds = %58, %49
  br label %60

60:                                               ; preds = %59, %44
  br label %61

61:                                               ; preds = %60, %39
  br label %62

62:                                               ; preds = %61, %34
  br label %63

63:                                               ; preds = %62, %29
  br label %64

64:                                               ; preds = %63, %20
  store i32 1, ptr %2, align 4
  br label %65

65:                                               ; preds = %64, %55, %9
  %66 = load i32, ptr %2, align 4
  ret i32 %66
}