; Function Attrs: nounwind uwtable
define internal range(i32 0, 2) i32 @open_console(ptr noundef readonly captures(none) %0) #3 {
  %2 = getelementptr inbounds nuw i8, ptr %0, i64 48
  %3 = load ptr, ptr %2, align 8, !tbaa !8
  %4 = tail call i32 @CRYPTO_THREAD_write_lock(ptr noundef %3) #15
  %.not = icmp eq i32 %4, 0
  br i1 %.not, label %31, label %5

5:                                                ; preds = %1
  store i1 true, ptr @is_a_tty, align 4
  %6 = tail call noalias ptr @fopen(ptr noundef nonnull @.str.1, ptr noundef nonnull @.str.2)
  store ptr %6, ptr @tty_in, align 8, !tbaa !15
  %7 = icmp eq ptr %6, null
  br i1 %7, label %8, label %10

8:                                                ; preds = %5
  %9 = load ptr, ptr @stdin, align 8, !tbaa !15
  store ptr %9, ptr @tty_in, align 8, !tbaa !15
  br label %10

10:                                               ; preds = %8, %5
  %11 = tail call noalias ptr @fopen(ptr noundef nonnull @.str.1, ptr noundef nonnull @.str.3)
  store ptr %11, ptr @tty_out, align 8, !tbaa !15
  %12 = icmp eq ptr %11, null
  br i1 %12, label %13, label %15

13:                                               ; preds = %10
  %14 = load ptr, ptr @stderr, align 8, !tbaa !15
  store ptr %14, ptr @tty_out, align 8, !tbaa !15
  br label %15

15:                                               ; preds = %13, %10
  %16 = load ptr, ptr @tty_in, align 8, !tbaa !15
  %17 = tail call i32 @fileno(ptr noundef %16) #15
  %18 = tail call i32 @tcgetattr(i32 noundef %17, ptr noundef nonnull @tty_orig) #15
  %19 = icmp eq i32 %18, -1
  br i1 %19, label %20, label %31

20:                                               ; preds = %15
  %21 = tail call ptr @__errno_location() #16
  %22 = load i32, ptr %21, align 4, !tbaa !17
  switch i32 %22, label %29 [
    i32 25, label %23
    i32 22, label %24
    i32 6, label %25
    i32 5, label %26
    i32 1, label %27
    i32 19, label %28
  ]

23:                                               ; preds = %20
  store i1 false, ptr @is_a_tty, align 4
  br label %31

24:                                               ; preds = %20
  store i1 false, ptr @is_a_tty, align 4
  br label %31

25:                                               ; preds = %20
  store i1 false, ptr @is_a_tty, align 4
  br label %31

26:                                               ; preds = %20
  store i1 false, ptr @is_a_tty, align 4
  br label %31

27:                                               ; preds = %20
  store i1 false, ptr @is_a_tty, align 4
  br label %31

28:                                               ; preds = %20
  store i1 false, ptr @is_a_tty, align 4
  br label %31

29:                                               ; preds = %20
  tail call void @ERR_new() #15
  tail call void @ERR_set_debug(ptr noundef nonnull @.str.4, i32 noundef 459, ptr noundef nonnull @__func__.open_console) #15
  %30 = load i32, ptr %21, align 4, !tbaa !17
  tail call void (i32, i32, ptr, ...) @ERR_set_error(i32 noundef 40, i32 noundef 108, ptr noundef nonnull @.str.5, i32 noundef %30) #15
  br label %31

31:                                               ; preds = %15, %24, %26, %28, %27, %25, %23, %1, %29
  %.0 = phi i32 [ 0, %29 ], [ 0, %1 ], [ 1, %23 ], [ 1, %25 ], [ 1, %27 ], [ 1, %28 ], [ 1, %26 ], [ 1, %24 ], [ 1, %15 ]
  ret i32 %.0
}